target datalayout = "e-m:e-p270:32:32-p271:32:32-p272:64:64-i64:64-i128:128-f80:128-n8:16:32:64-S128"
target triple = "x86_64-pc-linux-gnu"

%struct.H5O_shared_t = type { i32, ptr, i32, %union.anon }
%union.anon = type { %struct.H5O_mesg_loc_t }
%struct.H5O_mesg_loc_t = type { i32, i64 }
%struct.H5O_msg_class_t = type { i32, ptr, i64, i32, ptr, ptr, ptr, ptr, ptr, ptr, ptr, ptr, ptr, ptr, ptr, ptr, ptr, ptr, ptr, ptr }

@.str = private unnamed_addr constant [103 x i8] c"generated/home/dtcxzyw/WorkSpace/Projects/compilers/llvm-opt-benchmark/bench/hdf5/hdf5/src/H5Oshared.c\00", align 1
@H5E_OHDR_g = external global i64, align 8
@__func__.H5O__shared_copy_file = private unnamed_addr constant [22 x i8] c"H5O__shared_copy_file\00", align 1
@H5E_WRITEERROR_g = external global i64, align 8
@.str.5 = private unnamed_addr constant [48 x i8] c"unable to determine if message should be shared\00", align 1

; Function Attrs: nounwind uwtable
define i32 @H5O__shared_copy_file(ptr noundef %0, ptr noundef %1, ptr noundef %2, ptr noundef %3, ptr noundef %4, ptr noundef %5, ptr noundef %6, ptr noundef %7, ptr noundef %8) #0 {
  %10 = alloca ptr, align 8
  %11 = alloca ptr, align 8
  %12 = alloca ptr, align 8
  %13 = alloca ptr, align 8
  %14 = alloca ptr, align 8
  %15 = alloca ptr, align 8
  %16 = alloca ptr, align 8
  %17 = alloca ptr, align 8
  %18 = alloca ptr, align 8
  %19 = alloca ptr, align 8
  %20 = alloca ptr, align 8
  %21 = alloca i32, align 4
  %22 = alloca i8, align 1
  %23 = alloca i64, align 8
  store ptr %0, ptr %10, align 8
  store ptr %1, ptr %11, align 8
  store ptr %2, ptr %12, align 8
  store ptr %3, ptr %13, align 8
  store ptr %4, ptr %14, align 8
  store ptr %5, ptr %15, align 8
  store ptr %6, ptr %16, align 8
  store ptr %7, ptr %17, align 8
  store ptr %8, ptr %18, align 8
  %24 = load ptr, ptr %13, align 8
  store ptr %24, ptr %19, align 8
  %25 = load ptr, ptr %14, align 8
  store ptr %25, ptr %20, align 8
  store i32 0, ptr %21, align 4
  store i8 0, ptr %22, align 1
  %26 = load ptr, ptr %19, align 8
  %27 = getelementptr inbounds %struct.H5O_shared_t, ptr %26, i32 0, i32 0
  %28 = load i32, ptr %27, align 8
  %29 = icmp ne i32 %28, 2
  br i1 %29, label %30, label %57

30:                                               ; preds = %9
  store i64 -1, ptr %23, align 8
  call void @H5AC_tag(i64 noundef 2, ptr noundef %23)
  %31 = load ptr, ptr %11, align 8
  %32 = load ptr, ptr %12, align 8
  %33 = getelementptr inbounds %struct.H5O_msg_class_t, ptr %32, i32 0, i32 0
  %34 = load i32, ptr %33, align 8
  %35 = load ptr, ptr %14, align 8
  %36 = load ptr, ptr %16, align 8
  %37 = call i32 @H5SM_try_share(ptr noundef %31, ptr noundef null, i32 noundef 1, i32 noundef %34, ptr noundef %35, ptr noundef %36)
  %38 = icmp slt i32 %37, 0
  br i1 %38, label %39, label %55

39:                                               ; preds = %30
  br label %40

40:                                               ; preds = %39
  %41 = load i64, ptr %23, align 8
  call void @H5AC_tag(i64 noundef %41, ptr noundef null)
  br label %42

42:                                               ; preds = %40
  br label %43

43:                                               ; preds = %42
  %44 = load i64, ptr @H5E_OHDR_g, align 8
  %45 = load i64, ptr @H5E_WRITEERROR_g, align 8
  %46 = call i32 (ptr, ptr, i32, i64, i64, ptr, ...) @H5E_printf_stack(ptr noundef @.str, ptr noundef @__func__.H5O__shared_copy_file, i32 noundef 594, i64 noundef %44, i64 noundef %45, ptr noundef @.str.5)
  br label %47

47:                                               ; preds = %43
  store i8 1, ptr %22, align 1
  %48 = load i8, ptr %22, align 1
  %49 = trunc i8 %48 to i1
  %50 = zext i1 %49 to i8
  store i8 %50, ptr %22, align 1
  br label %51

51:                                               ; preds = %47
  br label %52

52:                                               ; preds = %51
  store i32 -1, ptr %21, align 4
  br label %78

53:                                               ; No predecessors!
  br label %54

54:                                               ; preds = %53
  br label %55

55:                                               ; preds = %54, %30
  %56 = load i64, ptr %23, align 8
  call void @H5AC_tag(i64 noundef %56, ptr noundef null)
  br label %77

57:                                               ; preds = %9
  %58 = load ptr, ptr %20, align 8
  %59 = getelementptr inbounds %struct.H5O_shared_t, ptr %58, i32 0, i32 0
  store i32 2, ptr %59, align 8
  %60 = load ptr, ptr %11, align 8
  %61 = load ptr, ptr %20, align 8
  %62 = getelementptr inbounds %struct.H5O_shared_t, ptr %61, i32 0, i32 1
  store ptr %60, ptr %62, align 8
  %63 = load ptr, ptr %12, align 8
  %64 = getelementptr inbounds %struct.H5O_msg_class_t, ptr %63, i32 0, i32 0
  %65 = load i32, ptr %64, align 8
  %66 = load ptr, ptr %20, align 8
  %67 = getelementptr inbounds %struct.H5O_shared_t, ptr %66, i32 0, i32 2
  store i32 %65, ptr %67, align 8
  %68 = load ptr, ptr %20, align 8
  %69 = getelementptr inbounds %struct.H5O_shared_t, ptr %68, i32 0, i32 3
  %70 = getelementptr inbounds %struct.H5O_mesg_loc_t, ptr %69, i32 0, i32 0
  store i32 0, ptr %70, align 8
  %71 = load ptr, ptr %20, align 8
  %72 = getelementptr inbounds %struct.H5O_shared_t, ptr %71, i32 0, i32 3
  %73 = getelementptr inbounds %struct.H5O_mesg_loc_t, ptr %72, i32 0, i32 1
  store i64 -1, ptr %73, align 8
  %74 = load ptr, ptr %16, align 8
  %75 = load i32, ptr %74, align 4
  %76 = or i32 %75, 2
  store i32 %76, ptr %74, align 4
  br label %77

77:                                               ; preds = %57, %55
  br label %78

78:                                               ; preds = %77, %52
  %79 = load i32, ptr %21, align 4
  ret i32 %79
}