; Function Attrs: nounwind uwtable
define range(i32 -1, 1) i32 @H5O__shared_copy_file(ptr nocapture noundef readnone %0, ptr noundef %1, ptr nocapture noundef readonly %2, ptr nocapture noundef readonly %3, ptr noundef %4, ptr nocapture noundef readnone %5, ptr noundef %6, ptr nocapture noundef readnone %7, ptr nocapture noundef readnone %8) local_unnamed_addr #0 {
  %10 = alloca i64, align 8
  %11 = load i32, ptr %3, align 8
  %.not = icmp eq i32 %11, 2
  br i1 %.not, label %21, label %12

12:                                               ; preds = %9
  store i64 -1, ptr %10, align 8
  call void @H5AC_tag(i64 noundef 2, ptr noundef nonnull %10) #7
  %13 = load i32, ptr %2, align 8
  %14 = call i32 @H5SM_try_share(ptr noundef %1, ptr noundef null, i32 noundef 1, i32 noundef %13, ptr noundef %4, ptr noundef %6) #7
  %15 = icmp slt i32 %14, 0
  %16 = load i64, ptr %10, align 8
  call void @H5AC_tag(i64 noundef %16, ptr noundef null) #7
  br i1 %15, label %17, label %29

17:                                               ; preds = %12
  %18 = load i64, ptr @H5E_OHDR_g, align 8
  %19 = load i64, ptr @H5E_WRITEERROR_g, align 8
  %20 = call i32 (ptr, ptr, i32, i64, i64, ptr, ...) @H5E_printf_stack(ptr noundef nonnull @.str, ptr noundef nonnull @__func__.H5O__shared_copy_file, i32 noundef 594, i64 noundef %18, i64 noundef %19, ptr noundef nonnull @.str.5) #7
  br label %29

21:                                               ; preds = %9
  store i32 2, ptr %4, align 8
  %22 = getelementptr inbounds i8, ptr %4, i64 8
  store ptr %1, ptr %22, align 8
  %23 = load i32, ptr %2, align 8
  %24 = getelementptr inbounds i8, ptr %4, i64 16
  store i32 %23, ptr %24, align 8
  %25 = getelementptr inbounds i8, ptr %4, i64 24
  store i32 0, ptr %25, align 8
  %26 = getelementptr inbounds i8, ptr %4, i64 32
  store i64 -1, ptr %26, align 8
  %27 = load i32, ptr %6, align 4
  %28 = or i32 %27, 2
  store i32 %28, ptr %6, align 4
  br label %29

29:                                               ; preds = %12, %21, %17
  %.0 = phi i32 [ -1, %17 ], [ 0, %21 ], [ 0, %12 ]
  ret i32 %.0
}